target datalayout = "e-m:e-p270:32:32-p271:32:32-p272:64:64-i64:64-i128:128-f80:128-n8:16:32:64-S128"
target triple = "x86_64-pc-linux-gnu"

%"class.ue2::graph_detail::vertex_descriptor" = type { ptr, i64 }
%"class.ue2::NGHolder" = type { ptr, %"class.ue2::ue2_graph", i32, %"class.ue2::graph_detail::vertex_descriptor", %"class.ue2::graph_detail::vertex_descriptor", %"class.ue2::graph_detail::vertex_descriptor", %"class.ue2::graph_detail::vertex_descriptor" }
%"class.ue2::ue2_graph" = type { %"class.boost::intrusive::list", i64, i64, i64, i64 }
%"class.boost::intrusive::list" = type { %"class.boost::intrusive::list_impl" }
%"class.boost::intrusive::list_impl" = type { %"struct.boost::intrusive::list_impl<boost::intrusive::bhtraits<ue2::ue2_graph<ue2::NGHolder, ue2::NFAGraphVertexProps, ue2::NFAGraphEdgeProps>::vertex_node, boost::intrusive::list_node_traits<void *>, boost::intrusive::safe_link, boost::intrusive::dft_tag, 1>, unsigned long, true, void>::data_t" }
%"struct.boost::intrusive::list_impl<boost::intrusive::bhtraits<ue2::ue2_graph<ue2::NGHolder, ue2::NFAGraphVertexProps, ue2::NFAGraphEdgeProps>::vertex_node, boost::intrusive::list_node_traits<void *>, boost::intrusive::safe_link, boost::intrusive::dft_tag, 1>, unsigned long, true, void>::data_t" = type { %"struct.boost::intrusive::list_impl<boost::intrusive::bhtraits<ue2::ue2_graph<ue2::NGHolder, ue2::NFAGraphVertexProps, ue2::NFAGraphEdgeProps>::vertex_node, boost::intrusive::list_node_traits<void *>, boost::intrusive::safe_link, boost::intrusive::dft_tag, 1>, unsigned long, true, void>::root_plus_size" }
%"struct.boost::intrusive::list_impl<boost::intrusive::bhtraits<ue2::ue2_graph<ue2::NGHolder, ue2::NFAGraphVertexProps, ue2::NFAGraphEdgeProps>::vertex_node, boost::intrusive::list_node_traits<void *>, boost::intrusive::safe_link, boost::intrusive::dft_tag, 1>, unsigned long, true, void>::root_plus_size" = type { %"struct.boost::intrusive::detail::size_holder", %"struct.boost::intrusive::detail::default_header_holder" }
%"struct.boost::intrusive::detail::size_holder" = type { i64 }
%"struct.boost::intrusive::detail::default_header_holder" = type { %"struct.boost::intrusive::list_node" }
%"struct.boost::intrusive::list_node" = type { ptr, ptr }

; Function Attrs: inlinehint mustprogress nounwind uwtable
define linkonce_odr hidden noundef zeroext i1 @_ZN3ue219has_managed_reportsENS_8nfa_kindE(i32 noundef %0) #5 comdat {
  %2 = alloca i1, align 1
  %3 = alloca i32, align 4
  store i32 %0, ptr %3, align 4
  %4 = load i32, ptr %3, align 4
  switch i32 %4, label %6 [
    i32 2, label %5
    i32 3, label %5
  ]

5:                                                ; preds = %1, %1
  store i1 true, ptr %2, align 1
  br label %7

6:                                                ; preds = %1
  store i1 false, ptr %2, align 1
  br label %7

7:                                                ; preds = %6, %5
  %8 = load i1, ptr %2, align 1
  ret i1 %8
}

; Function Attrs: inlinehint mustprogress uwtable
define linkonce_odr hidden noundef zeroext i1 @_ZN3ue219has_managed_reportsERKNS_8NGHolderE(ptr noundef nonnull align 8 dereferenceable(136) %0) #6 comdat {
  %2 = alloca ptr, align 8
  store ptr %0, ptr %2, align 8
  %3 = load ptr, ptr %2, align 8
  %4 = getelementptr inbounds nuw %"class.ue2::NGHolder", ptr %3, i32 0, i32 2
  %5 = load i32, ptr %4, align 8
  %6 = call noundef zeroext i1 @_ZN3ue219has_managed_reportsENS_8nfa_kindE(i32 noundef %5)
  ret i1 %6
}

; Function Attrs: mustprogress uwtable
define linkonce_odr hidden void @_ZN3ue28NGHolderC2Ev(ptr noundef nonnull align 8 dereferenceable(136) %0) unnamed_addr #3 comdat align 2 {
  %2 = alloca ptr, align 8
  store ptr %0, ptr %2, align 8
  %3 = load ptr, ptr %2, align 8
  call void @_ZN3ue28NGHolderC2ENS_8nfa_kindE(ptr noundef nonnull align 8 dereferenceable(136) %3, i32 noundef 3)
  ret void
}

; Function Attrs: mustprogress uwtable
define hidden void @_ZN3ue224reduceImplementableGraphERNS_8NGHolderENS_8som_typeEPKNS_13ReportManagerERKNS_14CompileContextE(ptr noundef nonnull align 8 dereferenceable(136) %0, i32 noundef %1, ptr noundef %2, ptr noundef nonnull align 8 dereferenceable(320) %3) #3 personality ptr @__gxx_personality_v0 {
  %5 = alloca ptr, align 8
  %6 = alloca i32, align 4
  %7 = alloca ptr, align 8
  %8 = alloca ptr, align 8
  %9 = alloca %"class.ue2::NGHolder", align 8
  %10 = alloca ptr, align 8
  %11 = alloca i32, align 4
  store ptr %0, ptr %5, align 8
  store i32 %1, ptr %6, align 4
  store ptr %2, ptr %7, align 8
  store ptr %3, ptr %8, align 8
  call void @llvm.lifetime.start.p0(i64 136, ptr %9) #20
  call void @_ZN3ue28NGHolderC2Ev(ptr noundef nonnull align 8 dereferenceable(136) %9)
  %12 = load ptr, ptr %5, align 8
  invoke void @_ZN3ue211cloneHolderERNS_8NGHolderERKS0_(ptr noundef nonnull align 8 dereferenceable(136) %9, ptr noundef nonnull align 8 dereferenceable(136) %12)
          to label %13 unwind label %32

13:                                               ; preds = %4
  %14 = load ptr, ptr %5, align 8
  %15 = load ptr, ptr %8, align 8
  %16 = invoke noundef zeroext i1 @_ZN3ue223reduceGraphEquivalencesERNS_8NGHolderERKNS_14CompileContextE(ptr noundef nonnull align 8 dereferenceable(136) %14, ptr noundef nonnull align 8 dereferenceable(320) %15)
          to label %17 unwind label %32

17:                                               ; preds = %13
  %18 = load ptr, ptr %5, align 8
  %19 = load i32, ptr %6, align 4
  %20 = invoke noundef zeroext i1 @_ZN3ue216removeRedundancyERNS_8NGHolderENS_8som_typeE(ptr noundef nonnull align 8 dereferenceable(136) %18, i32 noundef %19)
          to label %21 unwind label %32

21:                                               ; preds = %17
  %22 = load ptr, ptr %7, align 8
  %23 = icmp ne ptr %22, null
  br i1 %23, label %24, label %36

24:                                               ; preds = %21
  %25 = load ptr, ptr %5, align 8
  %26 = invoke noundef zeroext i1 @_ZN3ue219has_managed_reportsERKNS_8NGHolderE(ptr noundef nonnull align 8 dereferenceable(136) %25)
          to label %27 unwind label %32

27:                                               ; preds = %24
  br i1 %26, label %28, label %36

28:                                               ; preds = %27
  %29 = load ptr, ptr %5, align 8
  %30 = load ptr, ptr %7, align 8
  invoke void @_ZN3ue224pruneHighlanderDominatedERNS_8NGHolderERKNS_13ReportManagerE(ptr noundef nonnull align 8 dereferenceable(136) %29, ptr noundef nonnull align 8 dereferenceable(505) %30)
          to label %31 unwind label %32

31:                                               ; preds = %28
  br label %36

32:                                               ; preds = %48, %46, %36, %28, %24, %17, %13, %4
  %33 = landingpad { ptr, i32 }
          cleanup
  %34 = extractvalue { ptr, i32 } %33, 0
  store ptr %34, ptr %10, align 8
  %35 = extractvalue { ptr, i32 } %33, 1
  store i32 %35, ptr %11, align 4
  call void @_ZN3ue28NGHolderD1Ev(ptr noundef nonnull align 8 dereferenceable(136) %9) #20
  call void @llvm.lifetime.end.p0(i64 136, ptr %9) #20
  br label %52

36:                                               ; preds = %31, %27, %21
  %37 = load ptr, ptr %5, align 8
  %38 = load ptr, ptr %7, align 8
  %39 = load ptr, ptr %8, align 8
  %40 = invoke noundef i32 @_ZN3ue218isImplementableNFAERKNS_8NGHolderEPKNS_13ReportManagerERKNS_14CompileContextE(ptr noundef nonnull align 8 dereferenceable(136) %37, ptr noundef %38, ptr noundef nonnull align 8 dereferenceable(320) %39)
          to label %41 unwind label %32

41:                                               ; preds = %36
  %42 = icmp ne i32 %40, 0
  br i1 %42, label %51, label %43

43:                                               ; preds = %41
  br label %44

44:                                               ; preds = %43
  br label %45

45:                                               ; preds = %44
  br label %46

46:                                               ; preds = %45
  %47 = load ptr, ptr %5, align 8
  invoke void @_ZN3ue211clear_graphERNS_8NGHolderE(ptr noundef nonnull align 8 dereferenceable(136) %47)
          to label %48 unwind label %32

48:                                               ; preds = %46
  %49 = load ptr, ptr %5, align 8
  invoke void @_ZN3ue211cloneHolderERNS_8NGHolderERKS0_(ptr noundef nonnull align 8 dereferenceable(136) %49, ptr noundef nonnull align 8 dereferenceable(136) %9)
          to label %50 unwind label %32

50:                                               ; preds = %48
  br label %51

51:                                               ; preds = %50, %41
  call void @_ZN3ue28NGHolderD1Ev(ptr noundef nonnull align 8 dereferenceable(136) %9) #20
  call void @llvm.lifetime.end.p0(i64 136, ptr %9) #20
  ret void

52:                                               ; preds = %32
  %53 = load ptr, ptr %10, align 8
  %54 = load i32, ptr %11, align 4
  %55 = insertvalue { ptr, i32 } poison, ptr %53, 0
  %56 = insertvalue { ptr, i32 } %55, i32 %54, 1
  resume { ptr, i32 } %56
}