; Function Attrs: mustprogress uwtable
define hidden void @_ZN3ue224reduceImplementableGraphERNS_8NGHolderENS_8som_typeEPKNS_13ReportManagerERKNS_14CompileContextE(ptr noundef nonnull align 8 dereferenceable(136) %0, i32 noundef %1, ptr noundef %2, ptr noundef nonnull align 8 dereferenceable(320) %3) local_unnamed_addr #0 personality ptr @__gxx_personality_v0 {
  %5 = alloca %"class.ue2::NGHolder", align 8
  call void @llvm.lifetime.start.p0(i64 136, ptr nonnull %5) #21
  call void @_ZN3ue28NGHolderC2ENS_8nfa_kindE(ptr noundef nonnull align 8 dereferenceable(136) %5, i32 noundef 3)
  invoke void @_ZN3ue211cloneHolderERNS_8NGHolderERKS0_(ptr noundef nonnull align 8 dereferenceable(136) %5, ptr noundef nonnull align 8 dereferenceable(136) %0)
          to label %6 unwind label %16

6:                                                ; preds = %4
  %7 = invoke noundef zeroext i1 @_ZN3ue223reduceGraphEquivalencesERNS_8NGHolderERKNS_14CompileContextE(ptr noundef nonnull align 8 dereferenceable(136) %0, ptr noundef nonnull align 8 dereferenceable(320) %3)
          to label %8 unwind label %16

8:                                                ; preds = %6
  %9 = invoke noundef zeroext i1 @_ZN3ue216removeRedundancyERNS_8NGHolderENS_8som_typeE(ptr noundef nonnull align 8 dereferenceable(136) %0, i32 noundef %1)
          to label %10 unwind label %16

10:                                               ; preds = %8
  %.not = icmp eq ptr %2, null
  br i1 %.not, label %18, label %11

11:                                               ; preds = %10
  %12 = getelementptr inbounds nuw i8, ptr %0, i64 64
  %13 = load i32, ptr %12, align 8
  %14 = and i32 %13, -2
  %switch.i.i = icmp eq i32 %14, 2
  br i1 %switch.i.i, label %15, label %18

15:                                               ; preds = %11
  invoke void @_ZN3ue224pruneHighlanderDominatedERNS_8NGHolderERKNS_13ReportManagerE(ptr noundef nonnull align 8 dereferenceable(136) %0, ptr noundef nonnull align 8 dereferenceable(505) %2)
          to label %18 unwind label %16

16:                                               ; preds = %22, %21, %18, %15, %8, %6, %4
  %17 = landingpad { ptr, i32 }
          cleanup
  call void @_ZN3ue28NGHolderD1Ev(ptr noundef nonnull align 8 dereferenceable(136) %5) #21
  call void @llvm.lifetime.end.p0(i64 136, ptr nonnull %5) #21
  resume { ptr, i32 } %17

18:                                               ; preds = %15, %11, %10
  %19 = invoke noundef i32 @_ZN3ue218isImplementableNFAERKNS_8NGHolderEPKNS_13ReportManagerERKNS_14CompileContextE(ptr noundef nonnull align 8 dereferenceable(136) %0, ptr noundef %2, ptr noundef nonnull align 8 dereferenceable(320) %3)
          to label %20 unwind label %16

20:                                               ; preds = %18
  %.not15 = icmp eq i32 %19, 0
  br i1 %.not15, label %21, label %23

21:                                               ; preds = %20
  invoke void @_ZN3ue211clear_graphERNS_8NGHolderE(ptr noundef nonnull align 8 dereferenceable(136) %0)
          to label %22 unwind label %16

22:                                               ; preds = %21
  invoke void @_ZN3ue211cloneHolderERNS_8NGHolderERKS0_(ptr noundef nonnull align 8 dereferenceable(136) %0, ptr noundef nonnull align 8 dereferenceable(136) %5)
          to label %23 unwind label %16

23:                                               ; preds = %22, %20
  call void @_ZN3ue28NGHolderD1Ev(ptr noundef nonnull align 8 dereferenceable(136) %5) #21
  call void @llvm.lifetime.end.p0(i64 136, ptr nonnull %5) #21
  ret void
}